target datalayout = "e-m:e-p270:32:32-p271:32:32-p272:64:64-i64:64-i128:128-f80:128-n8:16:32:64-S128"
target triple = "x86_64-pc-linux-gnu"

%struct.luaL_Buffer = type { ptr, i32, ptr, [8192 x i8] }

@.str.17 = private unnamed_addr constant [14 x i8] c"invalid value\00", align 1

; Function Attrs: nounwind uwtable
define internal i32 @str_char(ptr noundef %0) #0 {
  %2 = alloca ptr, align 8
  %3 = alloca i32, align 4
  %4 = alloca i32, align 4
  %5 = alloca %struct.luaL_Buffer, align 8
  %6 = alloca i32, align 4
  store ptr %0, ptr %2, align 8, !tbaa !4
  call void @llvm.lifetime.start.p0(i64 4, ptr %3) #8
  %7 = load ptr, ptr %2, align 8, !tbaa !4
  %8 = call i32 @lua_gettop(ptr noundef %7)
  store i32 %8, ptr %3, align 4, !tbaa !13
  call void @llvm.lifetime.start.p0(i64 4, ptr %4) #8
  call void @llvm.lifetime.start.p0(i64 8216, ptr %5) #8
  %9 = load ptr, ptr %2, align 8, !tbaa !4
  call void @luaL_buffinit(ptr noundef %9, ptr noundef %5)
  store i32 1, ptr %4, align 4, !tbaa !13
  br label %10

10:                                               ; preds = %43, %1
  %11 = load i32, ptr %4, align 4, !tbaa !13
  %12 = load i32, ptr %3, align 4, !tbaa !13
  %13 = icmp sle i32 %11, %12
  br i1 %13, label %14, label %46

14:                                               ; preds = %10
  call void @llvm.lifetime.start.p0(i64 4, ptr %6) #8
  %15 = load ptr, ptr %2, align 8, !tbaa !4
  %16 = load i32, ptr %4, align 4, !tbaa !13
  %17 = call i64 @luaL_checkinteger(ptr noundef %15, i32 noundef %16)
  %18 = trunc i64 %17 to i32
  store i32 %18, ptr %6, align 4, !tbaa !13
  %19 = load i32, ptr %6, align 4, !tbaa !13
  %20 = trunc i32 %19 to i8
  %21 = zext i8 %20 to i32
  %22 = load i32, ptr %6, align 4, !tbaa !13
  %23 = icmp eq i32 %21, %22
  br i1 %23, label %28, label %24

24:                                               ; preds = %14
  %25 = load ptr, ptr %2, align 8, !tbaa !4
  %26 = load i32, ptr %4, align 4, !tbaa !13
  %27 = call i32 @luaL_argerror(ptr noundef %25, i32 noundef %26, ptr noundef @.str.17)
  br label %28

28:                                               ; preds = %24, %14
  %29 = getelementptr inbounds nuw %struct.luaL_Buffer, ptr %5, i32 0, i32 0
  %30 = load ptr, ptr %29, align 8, !tbaa !18
  %31 = getelementptr inbounds nuw %struct.luaL_Buffer, ptr %5, i32 0, i32 3
  %32 = getelementptr inbounds [8192 x i8], ptr %31, i64 0, i64 0
  %33 = getelementptr inbounds i8, ptr %32, i64 8192
  %34 = icmp ult ptr %30, %33
  br i1 %34, label %37, label %35

35:                                               ; preds = %28
  %36 = call ptr @luaL_prepbuffer(ptr noundef %5)
  br label %37

37:                                               ; preds = %35, %28
  %38 = load i32, ptr %6, align 4, !tbaa !13
  %39 = trunc i32 %38 to i8
  %40 = getelementptr inbounds nuw %struct.luaL_Buffer, ptr %5, i32 0, i32 0
  %41 = load ptr, ptr %40, align 8, !tbaa !18
  %42 = getelementptr inbounds nuw i8, ptr %41, i32 1
  store ptr %42, ptr %40, align 8, !tbaa !18
  store i8 %39, ptr %41, align 1, !tbaa !15
  call void @llvm.lifetime.end.p0(i64 4, ptr %6) #8
  br label %43

43:                                               ; preds = %37
  %44 = load i32, ptr %4, align 4, !tbaa !13
  %45 = add nsw i32 %44, 1
  store i32 %45, ptr %4, align 4, !tbaa !13
  br label %10, !llvm.loop !20

46:                                               ; preds = %10
  call void @luaL_pushresult(ptr noundef %5)
  call void @llvm.lifetime.end.p0(i64 8216, ptr %5) #8
  call void @llvm.lifetime.end.p0(i64 4, ptr %4) #8
  call void @llvm.lifetime.end.p0(i64 4, ptr %3) #8
  ret i32 1
}