; Function Attrs: nounwind uwtable
define internal noundef i32 @str_char(ptr noundef %0) #0 {
  %2 = alloca %struct.luaL_Buffer, align 8
  %3 = tail call i32 @lua_gettop(ptr noundef %0) #10
  call void @llvm.lifetime.start.p0(i64 8216, ptr nonnull %2) #10
  call void @luaL_buffinit(ptr noundef %0, ptr noundef nonnull %2) #10
  %.not11 = icmp slt i32 %3, 1
  br i1 %.not11, label %._crit_edge, label %.lr.ph

.lr.ph:                                           ; preds = %1
  %4 = getelementptr inbounds nuw i8, ptr %2, i64 8216
  br label %5

5:                                                ; preds = %.lr.ph, %17
  %.012 = phi i32 [ 1, %.lr.ph ], [ %20, %17 ]
  %6 = call i64 @luaL_checkinteger(ptr noundef %0, i32 noundef %.012) #10
  %7 = trunc i64 %6 to i8
  %8 = and i64 %6, 4294967040
  %9 = icmp eq i64 %8, 0
  br i1 %9, label %12, label %10

10:                                               ; preds = %5
  %11 = call i32 @luaL_argerror(ptr noundef %0, i32 noundef %.012, ptr noundef nonnull @.str.17) #10
  br label %12

12:                                               ; preds = %10, %5
  %13 = load ptr, ptr %2, align 8, !tbaa !11
  %14 = icmp ult ptr %13, %4
  br i1 %14, label %17, label %15

15:                                               ; preds = %12
  %16 = call ptr @luaL_prepbuffer(ptr noundef nonnull %2) #10
  %.pre = load ptr, ptr %2, align 8, !tbaa !11
  br label %17

17:                                               ; preds = %15, %12
  %18 = phi ptr [ %.pre, %15 ], [ %13, %12 ]
  %19 = getelementptr inbounds nuw i8, ptr %18, i64 1
  store ptr %19, ptr %2, align 8, !tbaa !11
  store i8 %7, ptr %18, align 1, !tbaa !8
  %20 = add nuw i32 %.012, 1
  %exitcond.not = icmp eq i32 %.012, %3
  br i1 %exitcond.not, label %._crit_edge, label %5, !llvm.loop !17

._crit_edge:                                      ; preds = %17, %1
  call void @luaL_pushresult(ptr noundef nonnull %2) #10
  call void @llvm.lifetime.end.p0(i64 8216, ptr nonnull %2) #10
  ret i32 1
}